target datalayout = "e-m:e-p270:32:32-p271:32:32-p272:64:64-i64:64-i128:128-f80:128-n8:16:32:64-S128"
target triple = "x86_64-pc-linux-gnu"

%struct.BackendGlobalData = type <{ ptr, ptr, i8, i8, i8, i8, i8, i8, i8, i8, i8, [3 x i8], i32, ptr, ptr, ptr, ptr, ptr, ptr, ptr, ptr, ptr, ptr, ptr, ptr, ptr, i32, %struct.jvmtiCapabilities, i8, [3 x i8], %struct.jvmtiEventCallbacks, ptr, ptr, ptr, ptr, ptr, ptr, ptr, i32, [4 x i8], ptr, i64, i32, [4 x i8], ptr, i32, i32, i8, i8, [6 x i8] }>
%struct.jvmtiCapabilities = type { i64, i64 }
%struct.jvmtiEventCallbacks = type { ptr, ptr, ptr, ptr, ptr, ptr, ptr, ptr, ptr, ptr, ptr, ptr, ptr, ptr, ptr, ptr, ptr, ptr, ptr, ptr, ptr, ptr, ptr, ptr, ptr, ptr, ptr, ptr, ptr, ptr, ptr, ptr, ptr, ptr, ptr, ptr, ptr, ptr, ptr }
%struct.jvmtiInterface_1_ = type { ptr, ptr, ptr, ptr, ptr, ptr, ptr, ptr, ptr, ptr, ptr, ptr, ptr, ptr, ptr, ptr, ptr, ptr, ptr, ptr, ptr, ptr, ptr, ptr, ptr, ptr, ptr, ptr, ptr, ptr, ptr, ptr, ptr, ptr, ptr, ptr, ptr, ptr, ptr, ptr, ptr, ptr, ptr, ptr, ptr, ptr, ptr, ptr, ptr, ptr, ptr, ptr, ptr, ptr, ptr, ptr, ptr, ptr, ptr, ptr, ptr, ptr, ptr, ptr, ptr, ptr, ptr, ptr, ptr, ptr, ptr, ptr, ptr, ptr, ptr, ptr, ptr, ptr, ptr, ptr, ptr, ptr, ptr, ptr, ptr, ptr, ptr, ptr, ptr, ptr, ptr, ptr, ptr, ptr, ptr, ptr, ptr, ptr, ptr, ptr, ptr, ptr, ptr, ptr, ptr, ptr, ptr, ptr, ptr, ptr, ptr, ptr, ptr, ptr, ptr, ptr, ptr, ptr, ptr, ptr, ptr, ptr, ptr, ptr, ptr, ptr, ptr, ptr, ptr, ptr, ptr, ptr, ptr, ptr, ptr, ptr, ptr, ptr, ptr, ptr, ptr, ptr, ptr, ptr, ptr, ptr, ptr, ptr, ptr, ptr, ptr, ptr, ptr, ptr, ptr, ptr }
%struct.EventInfo = type { i32, ptr, i8, ptr, ptr, i64, ptr, %union.anon }
%union.anon = type { %struct.anon.0 }
%struct.anon.0 = type { ptr, ptr, i8, %union.jvalue }
%union.jvalue = type { i64 }

@stderr = external global ptr, align 8
@.str = private unnamed_addr constant [17 x i8] c"JDWP exit error \00", align 1
@.str.1 = private unnamed_addr constant [2 x i8] c"\0A\00", align 1
@.str.2 = private unnamed_addr constant [19 x i8] c"%s(%d): %s [%s:%d]\00", align 1
@.str.4 = private unnamed_addr constant [55 x i8] c"src/jdk.jdwp.agent/share/native/libjdwp/eventHandler.c\00", align 1
@gdata = external global ptr, align 8
@active_callbacks = internal global i32 0, align 4
@vm_death_callback_active = internal global i8 0, align 1
@callbackLock = internal global ptr null, align 8
@callbackBlock = internal global ptr null, align 8
@.str.14 = private unnamed_addr constant [6 x i8] c"JVMTI\00", align 1
@.str.15 = private unnamed_addr constant [5 x i8] c"%s()\00", align 1
@.str.20 = private unnamed_addr constant [18 x i8] c"SetEventCallbacks\00", align 1
@.str.25 = private unnamed_addr constant [5 x i8] c"MISC\00", align 1
@.str.28 = private unnamed_addr constant [3 x i8] c"CB\00", align 1
@.str.75 = private unnamed_addr constant [10 x i8] c"cbVMDeath\00", align 1
@.str.76 = private unnamed_addr constant [40 x i8] c"Can't clear event callbacks on vm death\00", align 1
@.str.77 = private unnamed_addr constant [14 x i8] c"END cbVMDeath\00", align 1

; Function Attrs: nounwind uwtable
define internal void @cbVMDeath(ptr noundef %0, ptr noundef %1) #0 {
  %3 = alloca ptr, align 8
  %4 = alloca ptr, align 8
  %5 = alloca i32, align 4
  %6 = alloca %struct.EventInfo, align 8
  store ptr %0, ptr %3, align 8
  store ptr %1, ptr %4, align 8
  %7 = load ptr, ptr @gdata, align 8
  %8 = getelementptr inbounds %struct.BackendGlobalData, ptr %7, i32 0, i32 38
  %9 = load i32, ptr %8, align 8
  %10 = and i32 %9, 64
  %11 = icmp ne i32 %10, 0
  br i1 %11, label %12, label %13

12:                                               ; preds = %2
  call void @log_message_begin(ptr noundef @.str.28, ptr noundef @.str.4, i32 noundef 1261)
  call void (ptr, ...) @log_message_end(ptr noundef @.str.75)
  br label %14

13:                                               ; preds = %2
  br label %14

14:                                               ; preds = %13, %12
  %15 = load ptr, ptr @gdata, align 8
  %16 = getelementptr inbounds %struct.BackendGlobalData, ptr %15, i32 0, i32 48
  store volatile i8 1, ptr %16, align 1
  %17 = load ptr, ptr @gdata, align 8
  %18 = getelementptr inbounds %struct.BackendGlobalData, ptr %17, i32 0, i32 30
  call void @llvm.memset.p0.i64(ptr align 8 %18, i8 0, i64 312, i1 false)
  %19 = load ptr, ptr @gdata, align 8
  %20 = getelementptr inbounds %struct.BackendGlobalData, ptr %19, i32 0, i32 38
  %21 = load i32, ptr %20, align 8
  %22 = and i32 %21, 4
  %23 = icmp ne i32 %22, 0
  br i1 %23, label %24, label %25

24:                                               ; preds = %14
  call void @log_message_begin(ptr noundef @.str.14, ptr noundef @.str.4, i32 noundef 1270)
  call void (ptr, ...) @log_message_end(ptr noundef @.str.15, ptr noundef @.str.20)
  br label %26

25:                                               ; preds = %14
  br label %26

26:                                               ; preds = %25, %24
  %27 = load ptr, ptr @gdata, align 8
  %28 = getelementptr inbounds %struct.BackendGlobalData, ptr %27, i32 0, i32 0
  %29 = load ptr, ptr %28, align 8
  %30 = load ptr, ptr %29, align 8
  %31 = getelementptr inbounds %struct.jvmtiInterface_1_, ptr %30, i32 0, i32 121
  %32 = load ptr, ptr %31, align 8
  %33 = load ptr, ptr @gdata, align 8
  %34 = getelementptr inbounds %struct.BackendGlobalData, ptr %33, i32 0, i32 0
  %35 = load ptr, ptr %34, align 8
  %36 = load ptr, ptr @gdata, align 8
  %37 = getelementptr inbounds %struct.BackendGlobalData, ptr %36, i32 0, i32 30
  %38 = call i32 %32(ptr noundef %35, ptr noundef %37, i32 noundef 312)
  store i32 %38, ptr %5, align 4
  %39 = load i32, ptr %5, align 4
  %40 = icmp ne i32 %39, 0
  br i1 %40, label %41, label %47

41:                                               ; preds = %26
  %42 = load ptr, ptr @stderr, align 8
  %43 = load i32, ptr %5, align 4
  %44 = call ptr @jvmtiErrorText(i32 noundef %43)
  %45 = load i32, ptr %5, align 4
  call void (ptr, ptr, ptr, ptr, ...) @print_message(ptr noundef %42, ptr noundef @.str, ptr noundef @.str.1, ptr noundef @.str.2, ptr noundef %44, i32 noundef %45, ptr noundef @.str.76, ptr noundef @.str.4, i32 noundef 1273)
  %46 = load i32, ptr %5, align 4
  call void @debugInit_exit(i32 noundef %46, ptr noundef @.str.76)
  br label %47

47:                                               ; preds = %41, %26
  %48 = load ptr, ptr @callbackBlock, align 8
  call void @debugMonitorEnter(ptr noundef %48)
  %49 = load ptr, ptr @callbackLock, align 8
  call void @debugMonitorEnter(ptr noundef %49)
  store i8 1, ptr @vm_death_callback_active, align 1
  %50 = call i32 @threadControl_resumeAll()
  br label %51

51:                                               ; preds = %54, %47
  %52 = load i32, ptr @active_callbacks, align 4
  %53 = icmp sgt i32 %52, 0
  br i1 %53, label %54, label %56

54:                                               ; preds = %51
  %55 = load ptr, ptr @callbackLock, align 8
  call void @debugMonitorWait(ptr noundef %55)
  br label %51, !llvm.loop !13

56:                                               ; preds = %51
  %57 = load ptr, ptr @callbackLock, align 8
  call void @debugMonitorExit(ptr noundef %57)
  call void @llvm.memset.p0.i64(ptr align 8 %6, i8 0, i64 88, i1 false)
  %58 = getelementptr inbounds %struct.EventInfo, ptr %6, i32 0, i32 0
  store i32 20, ptr %58, align 8
  %59 = load ptr, ptr %4, align 8
  call void @event_callback(ptr noundef %59, ptr noundef %6)
  %60 = load ptr, ptr @callbackBlock, align 8
  call void @debugMonitorExit(ptr noundef %60)
  call void @commandLoop_sync()
  call void @debugLoop_sync()
  %61 = load ptr, ptr @gdata, align 8
  %62 = getelementptr inbounds %struct.BackendGlobalData, ptr %61, i32 0, i32 38
  %63 = load i32, ptr %62, align 8
  %64 = and i32 %63, 8
  %65 = icmp ne i32 %64, 0
  br i1 %65, label %66, label %67

66:                                               ; preds = %56
  call void @log_message_begin(ptr noundef @.str.25, ptr noundef @.str.4, i32 noundef 1330)
  call void (ptr, ...) @log_message_end(ptr noundef @.str.77)
  br label %68

67:                                               ; preds = %56
  br label %68

68:                                               ; preds = %67, %66
  ret void
}