; Function Attrs: nounwind uwtable
define internal void @cbVMDeath(ptr nocapture readnone %0, ptr noundef %1) #0 {
  %3 = alloca %struct.EventInfo, align 8
  %4 = load ptr, ptr @gdata, align 8
  %5 = getelementptr inbounds i8, ptr %4, i64 528
  %6 = load i32, ptr %5, align 8
  %7 = and i32 %6, 64
  %.not = icmp eq i32 %7, 0
  br i1 %.not, label %9, label %8

8:                                                ; preds = %2
  tail call void @log_message_begin(ptr noundef nonnull @.str.28, ptr noundef nonnull @.str.4, i32 noundef 1261) #6
  tail call void (ptr, ...) @log_message_end(ptr noundef nonnull @.str.75) #6
  %.pre = load ptr, ptr @gdata, align 8
  br label %9

9:                                                ; preds = %2, %8
  %10 = phi ptr [ %4, %2 ], [ %.pre, %8 ]
  %11 = getelementptr inbounds i8, ptr %10, i64 577
  store volatile i8 1, ptr %11, align 1
  %12 = getelementptr inbounds i8, ptr %10, i64 160
  tail call void @llvm.memset.p0.i64(ptr noundef nonnull align 8 dereferenceable(312) %12, i8 0, i64 312, i1 false)
  %13 = getelementptr inbounds i8, ptr %10, i64 528
  %14 = load i32, ptr %13, align 8
  %15 = and i32 %14, 4
  %.not4 = icmp eq i32 %15, 0
  br i1 %.not4, label %17, label %16

16:                                               ; preds = %9
  tail call void @log_message_begin(ptr noundef nonnull @.str.14, ptr noundef nonnull @.str.4, i32 noundef 1270) #6
  tail call void (ptr, ...) @log_message_end(ptr noundef nonnull @.str.15, ptr noundef nonnull @.str.20) #6
  %.pre7 = load ptr, ptr @gdata, align 8
  br label %17

17:                                               ; preds = %9, %16
  %18 = phi ptr [ %10, %9 ], [ %.pre7, %16 ]
  %19 = load ptr, ptr %18, align 8
  %20 = load ptr, ptr %19, align 8
  %21 = getelementptr inbounds i8, ptr %20, i64 968
  %22 = load ptr, ptr %21, align 8
  %23 = getelementptr inbounds i8, ptr %18, i64 160
  %24 = tail call i32 %22(ptr noundef nonnull %19, ptr noundef nonnull %23, i32 noundef 312) #6
  %.not5 = icmp eq i32 %24, 0
  br i1 %.not5, label %28, label %25

25:                                               ; preds = %17
  %26 = load ptr, ptr @stderr, align 8
  %27 = tail call ptr @jvmtiErrorText(i32 noundef %24) #6
  tail call void (ptr, ptr, ptr, ptr, ...) @print_message(ptr noundef %26, ptr noundef nonnull @.str, ptr noundef nonnull @.str.1, ptr noundef nonnull @.str.2, ptr noundef %27, i32 noundef %24, ptr noundef nonnull @.str.76, ptr noundef nonnull @.str.4, i32 noundef 1273) #6
  tail call void @debugInit_exit(i32 noundef %24, ptr noundef nonnull @.str.76) #6
  br label %28

28:                                               ; preds = %25, %17
  %29 = load ptr, ptr @callbackBlock, align 8
  tail call void @debugMonitorEnter(ptr noundef %29) #6
  %30 = load ptr, ptr @callbackLock, align 8
  tail call void @debugMonitorEnter(ptr noundef %30) #6
  store i1 true, ptr @vm_death_callback_active, align 1
  %31 = tail call i32 @threadControl_resumeAll() #6
  %32 = load i32, ptr @active_callbacks, align 4
  %33 = icmp sgt i32 %32, 0
  br i1 %33, label %.lr.ph, label %._crit_edge

.lr.ph:                                           ; preds = %28, %.lr.ph
  %34 = load ptr, ptr @callbackLock, align 8
  tail call void @debugMonitorWait(ptr noundef %34) #6
  %35 = load i32, ptr @active_callbacks, align 4
  %36 = icmp sgt i32 %35, 0
  br i1 %36, label %.lr.ph, label %._crit_edge, !llvm.loop !12

._crit_edge:                                      ; preds = %.lr.ph, %28
  %37 = load ptr, ptr @callbackLock, align 8
  tail call void @debugMonitorExit(ptr noundef %37) #6
  call void @llvm.memset.p0.i64(ptr noundef nonnull align 8 dereferenceable(88) %3, i8 0, i64 88, i1 false)
  store i32 20, ptr %3, align 8
  call fastcc void @event_callback(ptr noundef %1, ptr noundef nonnull %3)
  %38 = load ptr, ptr @callbackBlock, align 8
  call void @debugMonitorExit(ptr noundef %38) #6
  call void @commandLoop_sync() #6
  call void @debugLoop_sync() #6
  %39 = load ptr, ptr @gdata, align 8
  %40 = getelementptr inbounds i8, ptr %39, i64 528
  %41 = load i32, ptr %40, align 8
  %42 = and i32 %41, 8
  %.not6 = icmp eq i32 %42, 0
  br i1 %.not6, label %44, label %43

43:                                               ; preds = %._crit_edge
  call void @log_message_begin(ptr noundef nonnull @.str.25, ptr noundef nonnull @.str.4, i32 noundef 1330) #6
  call void (ptr, ...) @log_message_end(ptr noundef nonnull @.str.77) #6
  br label %44

44:                                               ; preds = %._crit_edge, %43
  ret void
}